(lp1
(V\u30a2\u30cb\u30e1 \u30a8\u30ed\u30b2
I4484
tp2
a(V\u7121\u4fee\u6b63
I3760
tp3
a(V\u30cf\u30e1\u64ae\u308a
I3691
tp4
a(V\u30a8\u30ed\u52d5\u753b
I3667
tp5
a(V\u7d20\u4eba \u6e05\u7d14
I3401
tp6
a(V\u7d20\u4eba
I2901
tp7
a(V\u5de8\u4e73 \u7f8e\u4e73
I2797
tp8
a(V\u4eba\u59bb \u719f\u5973
I2658
tp9
a(V\u6d77\u5916\u30dd\u30eb\u30ce \u91d1\u9aea \u767d\u4eba
I2309
tp10
a(V\u5de8\u4e73
I2206
tp11
a(V\u30a2\u30a4\u30c9\u30eb
I2158
tp12
a(V\u4e2d\u51fa\u3057
I1781
tp13
a(V\u30d5\u30a7\u30c1 \u5909\u614b
I1656
tp14
a(V\u76d7\u64ae\u30e2\u30ce
I1623
tp15
a(VSM \u9675\u8fb1
I1557
tp16
a(V\u30aa\u30ca\u30cb\u30fc
I1468
tp17
a(V\u30d5\u30a7\u30e9\u30c1\u30aa
I1370
tp18
a(V\u30b2\u30a4 \u7537\u6027\u30cc\u30fc\u30c9
I1306
tp19
a(VOL \u304a\u59c9\u3055\u3093
I1292
tp20
a(V\u30d5\u30a7\u30e9
I1229
tp21
a(V\u76d7\u64ae
I1206
tp22
a(V\u30aa\u30ca\u30cb\u30fc \u81ea\u5206\u64ae\u308a
I1165
tp23
a(V\u7f8e\u5c11\u5973
I1145
tp24
a(V\u500b\u4eba\u64ae\u5f71
I1133
tp25
a(V\u4eba\u59bb
I1098
tp26
a(V\u30e9\u30a4\u30d6(+18)
I1031
tp27
a(V\u75f4\u5973
I939
tp28
a(V\u719f\u5973
I920
tp29
a(V\u30b3\u30b9\u30d7\u30ec \u5236\u670d
I907
tp30
a(V\u30a2\u30cb\u30e1
I906
tp31
a(V\u30ec\u30ba
I866
tp32
a(V\u7f8e\u4e73
I838
tp33
a(V\u7f8e\u5973
I727
tp34
a(V\u30a2\u30ca\u30eb
I710
tp35
a(V\u30d1\u30a4\u30d1\u30f3
I691
tp36
a(V\u304a\u5c3b\u3000\u30a2\u30ca\u30eb
I689
tp37
a(V\u30ae\u30e3\u30eb
I628
tp38
a(V\u4e71\u4ea4 3P
I609
tp39
a(V\u30a8\u30ed\u30b2\u30fc
I592
tp40
a(V\u7f8e\u4eba
I575
tp41
a(V\u304a\u59c9\u3055\u3093
I574
tp42
a(V\u624b\u30b3\u30ad
I559
tp43
a(V\u8abf\u6559
I542
tp44
a(V\u91d1\u9aea
I489
tp45
a(VSM
I467
tp46
a(VJK
I464
tp47
a(V\u5916\u4eba
I459
tp48
a(V\u5317\u7c73\u7248
I454
tp49
a(V\u304a\u3063\u3071\u3044
I441
tp50
a(V\u767d\u4eba
I425
tp51
a(V\u5236\u670d
I418
tp52
a(V\u91ce\u5916 \u9732\u51fa
I418
tp53
a(V\u9854\u5c04 \u3076\u3063\u304b\u3051 \u53e3\u5185\u767a\u5c04
I417
tp54
a(V\u7206\u4e73
I416
tp55
a(V\u5973\u5b50\u9ad8\u751f
I416
tp56
a(V\u75f4\u6f22
I409
tp57
a(V\u30ed*
I394
tp58
a(V\u30e9\u30a4\u30d6\u30c1\u30e3\u30c3\u30c8
I368
tp59
a(V\u30cb\u30b3\u751f
I367
tp60
a(V\u30d5\u30a7\u30c1
I343
tp61
a(V\u30d1\u30a4\u30ba\u30ea
I341
tp62
a(V\u97d3\u56fd
I340
tp63
a(V\u30a8\u30ed
I334
tp64
a(V\u30bb\u30c3\u30af\u30b9
I333
tp65
a(V\u30cb\u30e5\u30fc\u30cf\u30fc\u30d5
I331
tp66
a(V\u30b3\u30b9\u30d7\u30ec
I323
tp67
a(VAV\u5973\u512a
I322
tp68
a(V\u9ad8\u753b\u8cea
I321
tp69
a(Vgay
I315
tp70
a(V\u53ef\u611b\u3044
I302
tp71
a(V\u6d0b\u7269
I295
tp72
a(V\u7dca\u7e1b
I288
tp73
a(VAV
I288
tp74
a(V\u6d41\u51fa
I286
tp75
a(V\u6f6e\u5439\u304d
I284
tp76
a(V\u30ec**
I279
tp77
a(V\u6deb\u4e71
I268
tp78
a(V\u9854\u5c04
I267
tp79
a(V\u5909\u614b
I259
tp80
a(V\u30a8\u30ed\u30a8\u30ed\u5927\u9b54\u738b
I256
tp81
a(V\u61d0\u30a8\u30ed
I256
tp82
a(V\u5973\u5b50\u6821\u751f
I251
tp83
a(V\u30de\u30c3\u30b5\u30fc\u30b8
I251
tp84
a(V\u30a4\u30e1\u30fc\u30b8
I247
tp85
a(Vkorea
I238
tp86
a(V\u540c\u4eba
I237
tp87
a(V\u4e71\u4ea4
I232
tp88
a(V\u30c8\u30a4\u30ec
I230
tp89
a(V\u30d1\u30f3\u30c1\u30e9
I230
tp90
a(V\u81ea\u62cd
I228
tp91
a(V\u30ca\u30f3\u30d1
I227
tp92
a(Vasian
I227
tp93
a(V\u30a8\u30ed\u30b2
I227
tp94
a(VM\u7537
I225
tp95
a(Vkorean
I224
tp96
a(Vsex
I222
tp97
a(VOL
I216
tp98
a(V\u30b9\u30ec\u30f3\u30c0\u30fc
I215
tp99
a(V\u30b2\u30a4
I211
tp100
a(V\u30dd\u30eb\u30ce
I210
tp101
a.